target datalayout = "e-m:e-p270:32:32-p271:32:32-p272:64:64-i64:64-i128:128-f80:128-n8:16:32:64-S128"
target triple = "x86_64-pc-linux-gnu"

%struct.FilterParams = type { i32, double, ptr, ptr, ptr }

; Function Attrs: nounwind uwtable
define internal void @blend_exclusion_32bit(ptr noundef %0, i64 noundef %1, ptr noundef %2, i64 noundef %3, ptr noundef %4, i64 noundef %5, i64 noundef %6, i64 noundef %7, ptr noundef %8, ptr noundef %9) #0 {
  %11 = alloca ptr, align 8
  %12 = alloca i64, align 8
  %13 = alloca ptr, align 8
  %14 = alloca i64, align 8
  %15 = alloca ptr, align 8
  %16 = alloca i64, align 8
  %17 = alloca i64, align 8
  %18 = alloca i64, align 8
  %19 = alloca ptr, align 8
  %20 = alloca ptr, align 8
  %21 = alloca ptr, align 8
  %22 = alloca ptr, align 8
  %23 = alloca ptr, align 8
  %24 = alloca float, align 4
  %25 = alloca i32, align 4
  %26 = alloca i32, align 4
  %27 = alloca i32, align 4
  store ptr %0, ptr %11, align 8, !tbaa !46
  store i64 %1, ptr %12, align 8, !tbaa !88
  store ptr %2, ptr %13, align 8, !tbaa !46
  store i64 %3, ptr %14, align 8, !tbaa !88
  store ptr %4, ptr %15, align 8, !tbaa !46
  store i64 %5, ptr %16, align 8, !tbaa !88
  store i64 %6, ptr %17, align 8, !tbaa !88
  store i64 %7, ptr %18, align 8, !tbaa !88
  store ptr %8, ptr %19, align 8, !tbaa !77
  store ptr %9, ptr %20, align 8, !tbaa !89
  call void @llvm.lifetime.start.p0(i64 8, ptr %21) #12
  %28 = load ptr, ptr %11, align 8, !tbaa !46
  store ptr %28, ptr %21, align 8, !tbaa !91
  call void @llvm.lifetime.start.p0(i64 8, ptr %22) #12
  %29 = load ptr, ptr %13, align 8, !tbaa !46
  store ptr %29, ptr %22, align 8, !tbaa !91
  call void @llvm.lifetime.start.p0(i64 8, ptr %23) #12
  %30 = load ptr, ptr %15, align 8, !tbaa !46
  store ptr %30, ptr %23, align 8, !tbaa !91
  call void @llvm.lifetime.start.p0(i64 4, ptr %24) #12
  %31 = load ptr, ptr %19, align 8, !tbaa !77
  %32 = getelementptr inbounds nuw %struct.FilterParams, ptr %31, i32 0, i32 1
  %33 = load double, ptr %32, align 8, !tbaa !82
  %34 = fptrunc nsz double %33 to float
  store float %34, ptr %24, align 4, !tbaa !99
  %35 = load i64, ptr %16, align 8, !tbaa !88
  %36 = udiv i64 %35, 4
  store i64 %36, ptr %16, align 8, !tbaa !88
  %37 = load i64, ptr %12, align 8, !tbaa !88
  %38 = udiv i64 %37, 4
  store i64 %38, ptr %12, align 8, !tbaa !88
  %39 = load i64, ptr %14, align 8, !tbaa !88
  %40 = udiv i64 %39, 4
  store i64 %40, ptr %14, align 8, !tbaa !88
  call void @llvm.lifetime.start.p0(i64 4, ptr %25) #12
  store i32 0, ptr %25, align 4, !tbaa !37
  br label %41

41:                                               ; preds = %110, %10
  %42 = load i32, ptr %25, align 4, !tbaa !37
  %43 = sext i32 %42 to i64
  %44 = load i64, ptr %18, align 8, !tbaa !88
  %45 = icmp slt i64 %43, %44
  br i1 %45, label %47, label %46

46:                                               ; preds = %41
  store i32 2, ptr %26, align 4
  call void @llvm.lifetime.end.p0(i64 4, ptr %25) #12
  br label %113

47:                                               ; preds = %41
  call void @llvm.lifetime.start.p0(i64 4, ptr %27) #12
  store i32 0, ptr %27, align 4, !tbaa !37
  br label %48

48:                                               ; preds = %97, %47
  %49 = load i32, ptr %27, align 4, !tbaa !37
  %50 = sext i32 %49 to i64
  %51 = load i64, ptr %17, align 8, !tbaa !88
  %52 = icmp slt i64 %50, %51
  br i1 %52, label %54, label %53

53:                                               ; preds = %48
  store i32 5, ptr %26, align 4
  call void @llvm.lifetime.end.p0(i64 4, ptr %27) #12
  br label %100

54:                                               ; preds = %48
  %55 = load ptr, ptr %21, align 8, !tbaa !91
  %56 = load i32, ptr %27, align 4, !tbaa !37
  %57 = sext i32 %56 to i64
  %58 = getelementptr inbounds float, ptr %55, i64 %57
  %59 = load float, ptr %58, align 4, !tbaa !99
  %60 = load ptr, ptr %21, align 8, !tbaa !91
  %61 = load i32, ptr %27, align 4, !tbaa !37
  %62 = sext i32 %61 to i64
  %63 = getelementptr inbounds float, ptr %60, i64 %62
  %64 = load float, ptr %63, align 4, !tbaa !99
  %65 = load ptr, ptr %22, align 8, !tbaa !91
  %66 = load i32, ptr %27, align 4, !tbaa !37
  %67 = sext i32 %66 to i64
  %68 = getelementptr inbounds float, ptr %65, i64 %67
  %69 = load float, ptr %68, align 4, !tbaa !99
  %70 = fadd nsz float %64, %69
  %71 = load ptr, ptr %21, align 8, !tbaa !91
  %72 = load i32, ptr %27, align 4, !tbaa !37
  %73 = sext i32 %72 to i64
  %74 = getelementptr inbounds float, ptr %71, i64 %73
  %75 = load float, ptr %74, align 4, !tbaa !99
  %76 = fmul nsz float 2.000000e+00, %75
  %77 = load ptr, ptr %22, align 8, !tbaa !91
  %78 = load i32, ptr %27, align 4, !tbaa !37
  %79 = sext i32 %78 to i64
  %80 = getelementptr inbounds float, ptr %77, i64 %79
  %81 = load float, ptr %80, align 4, !tbaa !99
  %82 = fmul nsz float %76, %81
  %83 = fdiv nsz float %82, 1.000000e+00
  %84 = fsub nsz float %70, %83
  %85 = load ptr, ptr %21, align 8, !tbaa !91
  %86 = load i32, ptr %27, align 4, !tbaa !37
  %87 = sext i32 %86 to i64
  %88 = getelementptr inbounds float, ptr %85, i64 %87
  %89 = load float, ptr %88, align 4, !tbaa !99
  %90 = fsub nsz float %84, %89
  %91 = load float, ptr %24, align 4, !tbaa !99
  %92 = call nsz float @llvm.fmuladd.f32(float %90, float %91, float %59)
  %93 = load ptr, ptr %23, align 8, !tbaa !91
  %94 = load i32, ptr %27, align 4, !tbaa !37
  %95 = sext i32 %94 to i64
  %96 = getelementptr inbounds float, ptr %93, i64 %95
  store float %92, ptr %96, align 4, !tbaa !99
  br label %97

97:                                               ; preds = %54
  %98 = load i32, ptr %27, align 4, !tbaa !37
  %99 = add nsw i32 %98, 1
  store i32 %99, ptr %27, align 4, !tbaa !37
  br label %48, !llvm.loop !604

100:                                              ; preds = %53
  %101 = load i64, ptr %16, align 8, !tbaa !88
  %102 = load ptr, ptr %23, align 8, !tbaa !91
  %103 = getelementptr inbounds float, ptr %102, i64 %101
  store ptr %103, ptr %23, align 8, !tbaa !91
  %104 = load i64, ptr %12, align 8, !tbaa !88
  %105 = load ptr, ptr %21, align 8, !tbaa !91
  %106 = getelementptr inbounds float, ptr %105, i64 %104
  store ptr %106, ptr %21, align 8, !tbaa !91
  %107 = load i64, ptr %14, align 8, !tbaa !88
  %108 = load ptr, ptr %22, align 8, !tbaa !91
  %109 = getelementptr inbounds float, ptr %108, i64 %107
  store ptr %109, ptr %22, align 8, !tbaa !91
  br label %110

110:                                              ; preds = %100
  %111 = load i32, ptr %25, align 4, !tbaa !37
  %112 = add nsw i32 %111, 1
  store i32 %112, ptr %25, align 4, !tbaa !37
  br label %41, !llvm.loop !605

113:                                              ; preds = %46
  call void @llvm.lifetime.end.p0(i64 4, ptr %24) #12
  call void @llvm.lifetime.end.p0(i64 8, ptr %23) #12
  call void @llvm.lifetime.end.p0(i64 8, ptr %22) #12
  call void @llvm.lifetime.end.p0(i64 8, ptr %21) #12
  ret void
}